target datalayout = "e-m:e-p270:32:32-p271:32:32-p272:64:64-i64:64-i128:128-f80:128-n8:16:32:64-S128"
target triple = "x86_64-pc-linux-gnu"

@dash_line = internal global ptr @.str.18, align 8
@.str.20 = private unnamed_addr constant [2 x i8] c"\0A\00", align 1

; Function Attrs: nounwind uwtable
define internal i32 @array2string(ptr noundef %0, i32 noundef %1, ptr noundef %2) #0 {
  %4 = alloca i32, align 4
  %5 = alloca ptr, align 8
  %6 = alloca i32, align 4
  %7 = alloca ptr, align 8
  %8 = alloca i32, align 4
  %9 = alloca i32, align 4
  %10 = alloca i64, align 8
  %11 = alloca i32, align 4
  store ptr %0, ptr %5, align 8, !tbaa !75
  store i32 %1, ptr %6, align 4, !tbaa !10
  store ptr %2, ptr %7, align 8, !tbaa !75
  call void @llvm.lifetime.start.p0(i64 4, ptr %8) #13
  call void @llvm.lifetime.start.p0(i64 4, ptr %9) #13
  call void @llvm.lifetime.start.p0(i64 8, ptr %10) #13
  %12 = load i32, ptr %6, align 4, !tbaa !10
  %13 = icmp ne i32 %12, 0
  br i1 %13, label %14, label %18

14:                                               ; preds = %3
  %15 = load ptr, ptr @dash_line, align 8, !tbaa !3
  %16 = call i64 @strlen(ptr noundef %15) #16
  %17 = mul i64 2, %16
  br label %19

18:                                               ; preds = %3
  br label %19

19:                                               ; preds = %18, %14
  %20 = phi i64 [ %17, %14 ], [ 0, %18 ]
  store i64 %20, ptr %10, align 8, !tbaa !8
  %21 = load ptr, ptr %7, align 8, !tbaa !75
  %22 = call i32 @PMIx_Argv_count(ptr noundef %21)
  store i32 %22, ptr %9, align 4, !tbaa !10
  store i32 0, ptr %8, align 4, !tbaa !10
  br label %23

23:                                               ; preds = %45, %19
  %24 = load i32, ptr %8, align 4, !tbaa !10
  %25 = load i32, ptr %9, align 4, !tbaa !10
  %26 = icmp slt i32 %24, %25
  br i1 %26, label %27, label %48

27:                                               ; preds = %23
  %28 = load ptr, ptr %7, align 8, !tbaa !75
  %29 = load i32, ptr %8, align 4, !tbaa !10
  %30 = sext i32 %29 to i64
  %31 = getelementptr inbounds ptr, ptr %28, i64 %30
  %32 = load ptr, ptr %31, align 8, !tbaa !3
  %33 = icmp eq ptr null, %32
  br i1 %33, label %34, label %35

34:                                               ; preds = %27
  br label %48

35:                                               ; preds = %27
  %36 = load ptr, ptr %7, align 8, !tbaa !75
  %37 = load i32, ptr %8, align 4, !tbaa !10
  %38 = sext i32 %37 to i64
  %39 = getelementptr inbounds ptr, ptr %36, i64 %38
  %40 = load ptr, ptr %39, align 8, !tbaa !3
  %41 = call i64 @strlen(ptr noundef %40) #16
  %42 = add i64 %41, 1
  %43 = load i64, ptr %10, align 8, !tbaa !8
  %44 = add i64 %43, %42
  store i64 %44, ptr %10, align 8, !tbaa !8
  br label %45

45:                                               ; preds = %35
  %46 = load i32, ptr %8, align 4, !tbaa !10
  %47 = add nsw i32 %46, 1
  store i32 %47, ptr %8, align 4, !tbaa !10
  br label %23, !llvm.loop !92

48:                                               ; preds = %34, %23
  %49 = load i64, ptr %10, align 8, !tbaa !8
  %50 = add i64 %49, 1
  %51 = call noalias ptr @malloc(i64 noundef %50) #17
  %52 = load ptr, ptr %5, align 8, !tbaa !75
  store ptr %51, ptr %52, align 8, !tbaa !3
  %53 = load ptr, ptr %5, align 8, !tbaa !75
  %54 = load ptr, ptr %53, align 8, !tbaa !3
  %55 = icmp eq ptr null, %54
  br i1 %55, label %56, label %57

56:                                               ; preds = %48
  store i32 -29, ptr %4, align 4
  store i32 1, ptr %11, align 4
  br label %104

57:                                               ; preds = %48
  %58 = load ptr, ptr %5, align 8, !tbaa !75
  %59 = load ptr, ptr %58, align 8, !tbaa !3
  store i8 0, ptr %59, align 1, !tbaa !93
  %60 = load i32, ptr %6, align 4, !tbaa !10
  %61 = icmp ne i32 %60, 0
  br i1 %61, label %62, label %67

62:                                               ; preds = %57
  %63 = load ptr, ptr %5, align 8, !tbaa !75
  %64 = load ptr, ptr %63, align 8, !tbaa !3
  %65 = load ptr, ptr @dash_line, align 8, !tbaa !3
  %66 = call ptr @strcat(ptr noundef %64, ptr noundef %65) #13
  br label %67

67:                                               ; preds = %62, %57
  store i32 0, ptr %8, align 4, !tbaa !10
  br label %68

68:                                               ; preds = %92, %67
  %69 = load i32, ptr %8, align 4, !tbaa !10
  %70 = load i32, ptr %9, align 4, !tbaa !10
  %71 = icmp slt i32 %69, %70
  br i1 %71, label %72, label %95

72:                                               ; preds = %68
  %73 = load ptr, ptr %7, align 8, !tbaa !75
  %74 = load i32, ptr %8, align 4, !tbaa !10
  %75 = sext i32 %74 to i64
  %76 = getelementptr inbounds ptr, ptr %73, i64 %75
  %77 = load ptr, ptr %76, align 8, !tbaa !3
  %78 = icmp eq ptr null, %77
  br i1 %78, label %79, label %80

79:                                               ; preds = %72
  br label %95

80:                                               ; preds = %72
  %81 = load ptr, ptr %5, align 8, !tbaa !75
  %82 = load ptr, ptr %81, align 8, !tbaa !3
  %83 = load ptr, ptr %7, align 8, !tbaa !75
  %84 = load i32, ptr %8, align 4, !tbaa !10
  %85 = sext i32 %84 to i64
  %86 = getelementptr inbounds ptr, ptr %83, i64 %85
  %87 = load ptr, ptr %86, align 8, !tbaa !3
  %88 = call ptr @strcat(ptr noundef %82, ptr noundef %87) #13
  %89 = load ptr, ptr %5, align 8, !tbaa !75
  %90 = load ptr, ptr %89, align 8, !tbaa !3
  %91 = call ptr @strcat(ptr noundef %90, ptr noundef @.str.20) #13
  br label %92

92:                                               ; preds = %80
  %93 = load i32, ptr %8, align 4, !tbaa !10
  %94 = add nsw i32 %93, 1
  store i32 %94, ptr %8, align 4, !tbaa !10
  br label %68, !llvm.loop !94

95:                                               ; preds = %79, %68
  %96 = load i32, ptr %6, align 4, !tbaa !10
  %97 = icmp ne i32 %96, 0
  br i1 %97, label %98, label %103

98:                                               ; preds = %95
  %99 = load ptr, ptr %5, align 8, !tbaa !75
  %100 = load ptr, ptr %99, align 8, !tbaa !3
  %101 = load ptr, ptr @dash_line, align 8, !tbaa !3
  %102 = call ptr @strcat(ptr noundef %100, ptr noundef %101) #13
  br label %103

103:                                              ; preds = %98, %95
  store i32 0, ptr %4, align 4
  store i32 1, ptr %11, align 4
  br label %104

104:                                              ; preds = %103, %56
  call void @llvm.lifetime.end.p0(i64 8, ptr %10) #13
  call void @llvm.lifetime.end.p0(i64 4, ptr %9) #13
  call void @llvm.lifetime.end.p0(i64 4, ptr %8) #13
  %105 = load i32, ptr %4, align 4
  ret i32 %105
}

; Function Attrs: nounwind uwtable
define ptr @pmix_show_help_vstring(ptr noundef %0, ptr noundef %1, i32 noundef %2, ptr noundef %3) #0 {
  %5 = alloca ptr, align 8
  %6 = alloca ptr, align 8
  %7 = alloca ptr, align 8
  %8 = alloca i32, align 4
  %9 = alloca ptr, align 8
  %10 = alloca i32, align 4
  %11 = alloca ptr, align 8
  %12 = alloca ptr, align 8
  %13 = alloca ptr, align 8
  %14 = alloca i32, align 4
  store ptr %0, ptr %6, align 8, !tbaa !3
  store ptr %1, ptr %7, align 8, !tbaa !3
  store i32 %2, ptr %8, align 4, !tbaa !10
  store ptr %3, ptr %9, align 8, !tbaa !86
  call void @llvm.lifetime.start.p0(i64 4, ptr %10) #13
  call void @llvm.lifetime.start.p0(i64 8, ptr %11) #13
  call void @llvm.lifetime.start.p0(i64 8, ptr %12) #13
  call void @llvm.lifetime.start.p0(i64 8, ptr %13) #13
  store ptr null, ptr %13, align 8, !tbaa !75
  %15 = load ptr, ptr %6, align 8, !tbaa !3
  %16 = load ptr, ptr %7, align 8, !tbaa !3
  %17 = call i32 @load_array(ptr noundef %13, ptr noundef %15, ptr noundef %16)
  store i32 %17, ptr %10, align 4, !tbaa !10
  %18 = icmp ne i32 0, %17
  br i1 %18, label %19, label %20

19:                                               ; preds = %4
  store ptr null, ptr %5, align 8
  store i32 1, ptr %14, align 4
  br label %43

20:                                               ; preds = %4
  %21 = load i32, ptr %8, align 4, !tbaa !10
  %22 = load ptr, ptr %13, align 8, !tbaa !75
  %23 = call i32 @array2string(ptr noundef %11, i32 noundef %21, ptr noundef %22)
  store i32 %23, ptr %10, align 4, !tbaa !10
  %24 = load i32, ptr %10, align 4, !tbaa !10
  %25 = icmp eq i32 0, %24
  br i1 %25, label %26, label %34

26:                                               ; preds = %20
  %27 = load ptr, ptr %11, align 8, !tbaa !3
  %28 = load ptr, ptr %9, align 8, !tbaa !86
  %29 = call i32 @vasprintf(ptr noundef %12, ptr noundef %27, ptr noundef %28) #13
  %30 = icmp sgt i32 0, %29
  br i1 %30, label %31, label %32

31:                                               ; preds = %26
  store ptr null, ptr %12, align 8, !tbaa !3
  br label %32

32:                                               ; preds = %31, %26
  %33 = load ptr, ptr %11, align 8, !tbaa !3
  call void @free(ptr noundef %33) #13
  br label %34

34:                                               ; preds = %32, %20
  %35 = load ptr, ptr %13, align 8, !tbaa !75
  call void @PMIx_Argv_free(ptr noundef %35)
  %36 = load i32, ptr %10, align 4, !tbaa !10
  %37 = icmp eq i32 0, %36
  br i1 %37, label %38, label %40

38:                                               ; preds = %34
  %39 = load ptr, ptr %12, align 8, !tbaa !3
  br label %41

40:                                               ; preds = %34
  br label %41

41:                                               ; preds = %40, %38
  %42 = phi ptr [ %39, %38 ], [ null, %40 ]
  store ptr %42, ptr %5, align 8
  store i32 1, ptr %14, align 4
  br label %43

43:                                               ; preds = %41, %19
  call void @llvm.lifetime.end.p0(i64 8, ptr %13) #13
  call void @llvm.lifetime.end.p0(i64 8, ptr %12) #13
  call void @llvm.lifetime.end.p0(i64 8, ptr %11) #13
  call void @llvm.lifetime.end.p0(i64 4, ptr %10) #13
  %44 = load ptr, ptr %5, align 8
  ret ptr %44
}