; Function Attrs: nounwind uwtable
define ptr @pmix_show_help_vstring(ptr noundef %0, ptr noundef %1, i32 noundef %2, ptr noundef %3) local_unnamed_addr #0 {
  %5 = alloca ptr, align 8
  %6 = alloca ptr, align 8
  call void @llvm.lifetime.start.p0(i64 8, ptr nonnull %5) #18
  call void @llvm.lifetime.start.p0(i64 8, ptr nonnull %6) #18
  store ptr null, ptr %6, align 8, !tbaa !62
  %7 = call fastcc i32 @load_array(ptr noundef %6, ptr noundef %0, ptr noundef %1)
  %.not = icmp eq i32 %7, 0
  br i1 %.not, label %8, label %39

8:                                                ; preds = %4
  %9 = load ptr, ptr %6, align 8, !tbaa !62
  %.not.i = icmp eq i32 %2, 0
  %spec.select.i = select i1 %.not.i, i64 0, i64 150
  %10 = call i32 @PMIx_Argv_count(ptr noundef %9) #18
  %11 = icmp sgt i32 %10, 0
  br i1 %11, label %.lr.ph.preheader.i, label %._crit_edge.i

.lr.ph.preheader.i:                               ; preds = %8
  %wide.trip.count.i = zext nneg i32 %10 to i64
  br label %.lr.ph.i

.lr.ph.i:                                         ; preds = %15, %.lr.ph.preheader.i
  %indvars.iv.i = phi i64 [ 0, %.lr.ph.preheader.i ], [ %indvars.iv.next.i, %15 ]
  %.037.i = phi i64 [ %spec.select.i, %.lr.ph.preheader.i ], [ %18, %15 ]
  %12 = getelementptr inbounds nuw ptr, ptr %9, i64 %indvars.iv.i
  %13 = load ptr, ptr %12, align 8, !tbaa !56
  %14 = icmp eq ptr %13, null
  br i1 %14, label %._crit_edge.i, label %15

15:                                               ; preds = %.lr.ph.i
  %16 = call i64 @strlen(ptr noundef nonnull dereferenceable(1) %13) #23
  %17 = add i64 %.037.i, 1
  %18 = add i64 %17, %16
  %indvars.iv.next.i = add nuw nsw i64 %indvars.iv.i, 1
  %exitcond.not.i = icmp eq i64 %indvars.iv.next.i, %wide.trip.count.i
  br i1 %exitcond.not.i, label %._crit_edge.i, label %.lr.ph.i, !llvm.loop !69

._crit_edge.i:                                    ; preds = %15, %.lr.ph.i, %8
  %.0.lcssa.i = phi i64 [ %spec.select.i, %8 ], [ %18, %15 ], [ %.037.i, %.lr.ph.i ]
  %19 = add i64 %.0.lcssa.i, 1
  %20 = call noalias ptr @malloc(i64 noundef %19) #19
  %21 = icmp eq ptr %20, null
  br i1 %21, label %array2string.exit, label %22

22:                                               ; preds = %._crit_edge.i
  store i8 0, ptr %20, align 1, !tbaa !70
  br i1 %.not.i, label %24, label %23

23:                                               ; preds = %22
  %strlen.i = call i64 @strlen(ptr nonnull dereferenceable(1) %20)
  %endptr.i = getelementptr inbounds i8, ptr %20, i64 %strlen.i
  call void @llvm.memcpy.p0.p0.i64(ptr noundef nonnull align 1 dereferenceable(76) %endptr.i, ptr noundef nonnull align 1 dereferenceable(76) @.str.18, i64 76, i1 false)
  br label %24

24:                                               ; preds = %23, %22
  br i1 %11, label %.lr.ph42.preheader.i, label %._crit_edge43.i

.lr.ph42.preheader.i:                             ; preds = %24
  %wide.trip.count49.i = zext nneg i32 %10 to i64
  br label %.lr.ph42.i

.lr.ph42.i:                                       ; preds = %28, %.lr.ph42.preheader.i
  %indvars.iv46.i = phi i64 [ 0, %.lr.ph42.preheader.i ], [ %indvars.iv.next47.i, %28 ]
  %25 = getelementptr inbounds nuw ptr, ptr %9, i64 %indvars.iv46.i
  %26 = load ptr, ptr %25, align 8, !tbaa !56
  %27 = icmp eq ptr %26, null
  br i1 %27, label %._crit_edge43.i, label %28

28:                                               ; preds = %.lr.ph42.i
  %29 = call ptr @strcat(ptr noundef nonnull dereferenceable(1) %20, ptr noundef nonnull dereferenceable(1) %26) #18
  %strlen32.i = call i64 @strlen(ptr nonnull dereferenceable(1) %20)
  %endptr33.i = getelementptr inbounds i8, ptr %20, i64 %strlen32.i
  store i16 10, ptr %endptr33.i, align 1
  %indvars.iv.next47.i = add nuw nsw i64 %indvars.iv46.i, 1
  %exitcond50.not.i = icmp eq i64 %indvars.iv.next47.i, %wide.trip.count49.i
  br i1 %exitcond50.not.i, label %._crit_edge43.i, label %.lr.ph42.i, !llvm.loop !71

._crit_edge43.i:                                  ; preds = %28, %.lr.ph42.i, %24
  br i1 %.not.i, label %31, label %30

30:                                               ; preds = %._crit_edge43.i
  %strlen34.i = call i64 @strlen(ptr nonnull dereferenceable(1) %20)
  %endptr35.i = getelementptr inbounds i8, ptr %20, i64 %strlen34.i
  call void @llvm.memcpy.p0.p0.i64(ptr noundef nonnull align 1 dereferenceable(76) %endptr35.i, ptr noundef nonnull align 1 dereferenceable(76) @.str.18, i64 76, i1 false)
  br label %31

31:                                               ; preds = %30, %._crit_edge43.i
  %32 = call i32 @vasprintf(ptr noundef nonnull %5, ptr noundef nonnull %20, ptr noundef %3) #18
  %33 = icmp slt i32 %32, 0
  br i1 %33, label %34, label %36

34:                                               ; preds = %31
  store ptr null, ptr %5, align 8, !tbaa !56
  br label %36

array2string.exit:                                ; preds = %._crit_edge.i
  %35 = load ptr, ptr %6, align 8, !tbaa !62
  call void @PMIx_Argv_free(ptr noundef %35) #18
  br label %39

36:                                               ; preds = %31, %34
  call void @free(ptr noundef nonnull %20) #18
  %37 = load ptr, ptr %6, align 8, !tbaa !62
  call void @PMIx_Argv_free(ptr noundef %37) #18
  %38 = load ptr, ptr %5, align 8
  br label %39

39:                                               ; preds = %36, %array2string.exit, %4
  %.0 = phi ptr [ null, %4 ], [ %38, %36 ], [ null, %array2string.exit ]
  call void @llvm.lifetime.end.p0(i64 8, ptr nonnull %6) #18
  call void @llvm.lifetime.end.p0(i64 8, ptr nonnull %5) #18
  ret ptr %.0
}